target datalayout = "e-m:e-p270:32:32-p271:32:32-p272:64:64-i64:64-i128:128-f80:128-n8:16:32:64-S128"
target triple = "x86_64-pc-linux-gnu"

%struct.git_hash_algo = type { ptr, i32, i64, i64, i64, ptr, ptr, ptr, ptr, ptr, ptr, ptr, ptr, ptr }
%struct.string_list = type { ptr, i64, i64, i8, ptr }
%struct.string_list_item = type { ptr, ptr }
%struct.repository = type { ptr, ptr, ptr, ptr, ptr, %struct.strmap, %struct.strmap, %struct.repo_path_cache, ptr, ptr, ptr, ptr, %struct.repo_settings, ptr, ptr, ptr, ptr, ptr, ptr, i32, i32, i32, ptr, ptr, i32, i32, i8 }
%struct.strmap = type { %struct.hashmap, ptr, i8 }
%struct.hashmap = type { ptr, ptr, ptr, i32, i32, i32, i32, i8 }
%struct.repo_path_cache = type { ptr, ptr, ptr, ptr, ptr, ptr, ptr }
%struct.repo_settings = type { i32, i32, i32, i32, i32, i32, i32, i32, i32, i32, i32, i32, ptr, i32, i32, i32, i32, i32, i32, i32, i64, i64, i64 }

@the_repository = external global ptr, align 8
@advertise_sid = internal global i32 0, align 4
@.str.33 = private unnamed_addr constant [6 x i8] c"fetch\00", align 1
@.str.128 = private unnamed_addr constant [6 x i8] c"agent\00", align 1
@.str.130 = private unnamed_addr constant [11 x i8] c"session-id\00", align 1
@.str.186 = private unnamed_addr constant [14 x i8] c"command=fetch\00", align 1
@.str.187 = private unnamed_addr constant [9 x i8] c"agent=%s\00", align 1
@.str.188 = private unnamed_addr constant [14 x i8] c"session-id=%s\00", align 1
@.str.189 = private unnamed_addr constant [14 x i8] c"server-option\00", align 1
@.str.190 = private unnamed_addr constant [17 x i8] c"server-option=%s\00", align 1
@.str.191 = private unnamed_addr constant [14 x i8] c"object-format\00", align 1
@.str.192 = private unnamed_addr constant [44 x i8] c"mismatched algorithms: client %s; server %s\00", align 1
@.str.193 = private unnamed_addr constant [17 x i8] c"object-format=%s\00", align 1
@.str.194 = private unnamed_addr constant [43 x i8] c"the server does not support algorithm '%s'\00", align 1
@hash_algos = external constant [3 x %struct.git_hash_algo], align 16

; Function Attrs: inlinehint nounwind uwtable
define internal i32 @hash_algo_by_ptr(ptr noundef %0) #5 {
  %2 = alloca i32, align 4
  %3 = alloca ptr, align 8
  %4 = alloca i64, align 8
  %5 = alloca ptr, align 8
  %6 = alloca i32, align 4
  store ptr %0, ptr %3, align 8, !tbaa !226
  call void @llvm.lifetime.start.p0(i64 8, ptr %4) #11
  store i64 0, ptr %4, align 8, !tbaa !96
  br label %7

7:                                                ; preds = %23, %1
  %8 = load i64, ptr %4, align 8, !tbaa !96
  %9 = icmp ult i64 %8, 3
  br i1 %9, label %10, label %26

10:                                               ; preds = %7
  call void @llvm.lifetime.start.p0(i64 8, ptr %5) #11
  %11 = load i64, ptr %4, align 8, !tbaa !96
  %12 = getelementptr inbounds nuw [3 x %struct.git_hash_algo], ptr @hash_algos, i64 0, i64 %11
  store ptr %12, ptr %5, align 8, !tbaa !226
  %13 = load ptr, ptr %3, align 8, !tbaa !226
  %14 = load ptr, ptr %5, align 8, !tbaa !226
  %15 = icmp eq ptr %13, %14
  br i1 %15, label %16, label %19

16:                                               ; preds = %10
  %17 = load i64, ptr %4, align 8, !tbaa !96
  %18 = trunc i64 %17 to i32
  store i32 %18, ptr %2, align 4
  store i32 1, ptr %6, align 4
  br label %20

19:                                               ; preds = %10
  store i32 0, ptr %6, align 4
  br label %20

20:                                               ; preds = %19, %16
  call void @llvm.lifetime.end.p0(i64 8, ptr %5) #11
  %21 = load i32, ptr %6, align 4
  switch i32 %21, label %27 [
    i32 0, label %22
  ]

22:                                               ; preds = %20
  br label %23

23:                                               ; preds = %22
  %24 = load i64, ptr %4, align 8, !tbaa !96
  %25 = add i64 %24, 1
  store i64 %25, ptr %4, align 8, !tbaa !96
  br label %7, !llvm.loop !227

26:                                               ; preds = %7
  store i32 0, ptr %2, align 4
  store i32 1, ptr %6, align 4
  br label %27

27:                                               ; preds = %26, %20
  call void @llvm.lifetime.end.p0(i64 8, ptr %4) #11
  %28 = load i32, ptr %2, align 4
  ret i32 %28
}

; Function Attrs: nounwind uwtable
define internal void @write_fetch_command_and_capabilities(ptr noundef %0, ptr noundef %1) #0 {
  %3 = alloca ptr, align 8
  %4 = alloca ptr, align 8
  %5 = alloca ptr, align 8
  %6 = alloca i32, align 4
  %7 = alloca i32, align 4
  store ptr %0, ptr %3, align 8, !tbaa !9
  store ptr %1, ptr %4, align 8, !tbaa !31
  call void @llvm.lifetime.start.p0(i64 8, ptr %5) #11
  call void @ensure_server_supports_v2(ptr noundef @.str.33)
  %8 = load ptr, ptr %3, align 8, !tbaa !9
  call void (ptr, ptr, ...) @packet_buf_write(ptr noundef %8, ptr noundef @.str.186)
  %9 = call i32 @server_supports_v2(ptr noundef @.str.128)
  %10 = icmp ne i32 %9, 0
  br i1 %10, label %11, label %14

11:                                               ; preds = %2
  %12 = load ptr, ptr %3, align 8, !tbaa !9
  %13 = call ptr @git_user_agent_sanitized()
  call void (ptr, ptr, ...) @packet_buf_write(ptr noundef %12, ptr noundef @.str.187, ptr noundef %13)
  br label %14

14:                                               ; preds = %11, %2
  %15 = load i32, ptr @advertise_sid, align 4, !tbaa !19
  %16 = icmp ne i32 %15, 0
  br i1 %16, label %17, label %23

17:                                               ; preds = %14
  %18 = call i32 @server_supports_v2(ptr noundef @.str.130)
  %19 = icmp ne i32 %18, 0
  br i1 %19, label %20, label %23

20:                                               ; preds = %17
  %21 = load ptr, ptr %3, align 8, !tbaa !9
  %22 = call ptr @trace2_session_id()
  call void (ptr, ptr, ...) @packet_buf_write(ptr noundef %21, ptr noundef @.str.188, ptr noundef %22)
  br label %23

23:                                               ; preds = %20, %17, %14
  %24 = load ptr, ptr %4, align 8, !tbaa !31
  %25 = icmp ne ptr %24, null
  br i1 %25, label %26, label %53

26:                                               ; preds = %23
  %27 = load ptr, ptr %4, align 8, !tbaa !31
  %28 = getelementptr inbounds nuw %struct.string_list, ptr %27, i32 0, i32 1
  %29 = load i64, ptr %28, align 8, !tbaa !63
  %30 = icmp ne i64 %29, 0
  br i1 %30, label %31, label %53

31:                                               ; preds = %26
  call void @llvm.lifetime.start.p0(i64 4, ptr %6) #11
  call void @ensure_server_supports_v2(ptr noundef @.str.189)
  store i32 0, ptr %6, align 4, !tbaa !19
  br label %32

32:                                               ; preds = %49, %31
  %33 = load i32, ptr %6, align 4, !tbaa !19
  %34 = sext i32 %33 to i64
  %35 = load ptr, ptr %4, align 8, !tbaa !31
  %36 = getelementptr inbounds nuw %struct.string_list, ptr %35, i32 0, i32 1
  %37 = load i64, ptr %36, align 8, !tbaa !63
  %38 = icmp ult i64 %34, %37
  br i1 %38, label %39, label %52

39:                                               ; preds = %32
  %40 = load ptr, ptr %3, align 8, !tbaa !9
  %41 = load ptr, ptr %4, align 8, !tbaa !31
  %42 = getelementptr inbounds nuw %struct.string_list, ptr %41, i32 0, i32 0
  %43 = load ptr, ptr %42, align 8, !tbaa !66
  %44 = load i32, ptr %6, align 4, !tbaa !19
  %45 = sext i32 %44 to i64
  %46 = getelementptr inbounds %struct.string_list_item, ptr %43, i64 %45
  %47 = getelementptr inbounds nuw %struct.string_list_item, ptr %46, i32 0, i32 0
  %48 = load ptr, ptr %47, align 8, !tbaa !67
  call void (ptr, ptr, ...) @packet_buf_write(ptr noundef %40, ptr noundef @.str.190, ptr noundef %48)
  br label %49

49:                                               ; preds = %39
  %50 = load i32, ptr %6, align 4, !tbaa !19
  %51 = add nsw i32 %50, 1
  store i32 %51, ptr %6, align 4, !tbaa !19
  br label %32, !llvm.loop !128

52:                                               ; preds = %32
  call void @llvm.lifetime.end.p0(i64 4, ptr %6) #11
  br label %53

53:                                               ; preds = %52, %26, %23
  %54 = call i32 @server_feature_v2(ptr noundef @.str.191, ptr noundef %5)
  %55 = icmp ne i32 %54, 0
  br i1 %55, label %56, label %80

56:                                               ; preds = %53
  call void @llvm.lifetime.start.p0(i64 4, ptr %7) #11
  %57 = load ptr, ptr %5, align 8, !tbaa !4
  %58 = call i32 @hash_algo_by_name(ptr noundef %57)
  store i32 %58, ptr %7, align 4, !tbaa !19
  %59 = load ptr, ptr @the_repository, align 8, !tbaa !36
  %60 = getelementptr inbounds nuw %struct.repository, ptr %59, i32 0, i32 17
  %61 = load ptr, ptr %60, align 8, !tbaa !68
  %62 = call i32 @hash_algo_by_ptr(ptr noundef %61)
  %63 = load i32, ptr %7, align 4, !tbaa !19
  %64 = icmp ne i32 %62, %63
  br i1 %64, label %65, label %73

65:                                               ; preds = %56
  %66 = call ptr @_(ptr noundef @.str.192)
  %67 = load ptr, ptr @the_repository, align 8, !tbaa !36
  %68 = getelementptr inbounds nuw %struct.repository, ptr %67, i32 0, i32 17
  %69 = load ptr, ptr %68, align 8, !tbaa !68
  %70 = getelementptr inbounds nuw %struct.git_hash_algo, ptr %69, i32 0, i32 0
  %71 = load ptr, ptr %70, align 8, !tbaa !98
  %72 = load ptr, ptr %5, align 8, !tbaa !4
  call void (ptr, ...) @die(ptr noundef %66, ptr noundef %71, ptr noundef %72) #13
  unreachable

73:                                               ; preds = %56
  %74 = load ptr, ptr %3, align 8, !tbaa !9
  %75 = load ptr, ptr @the_repository, align 8, !tbaa !36
  %76 = getelementptr inbounds nuw %struct.repository, ptr %75, i32 0, i32 17
  %77 = load ptr, ptr %76, align 8, !tbaa !68
  %78 = getelementptr inbounds nuw %struct.git_hash_algo, ptr %77, i32 0, i32 0
  %79 = load ptr, ptr %78, align 8, !tbaa !98
  call void (ptr, ptr, ...) @packet_buf_write(ptr noundef %74, ptr noundef @.str.193, ptr noundef %79)
  call void @llvm.lifetime.end.p0(i64 4, ptr %7) #11
  br label %94

80:                                               ; preds = %53
  %81 = load ptr, ptr @the_repository, align 8, !tbaa !36
  %82 = getelementptr inbounds nuw %struct.repository, ptr %81, i32 0, i32 17
  %83 = load ptr, ptr %82, align 8, !tbaa !68
  %84 = call i32 @hash_algo_by_ptr(ptr noundef %83)
  %85 = icmp ne i32 %84, 1
  br i1 %85, label %86, label %93

86:                                               ; preds = %80
  %87 = call ptr @_(ptr noundef @.str.194)
  %88 = load ptr, ptr @the_repository, align 8, !tbaa !36
  %89 = getelementptr inbounds nuw %struct.repository, ptr %88, i32 0, i32 17
  %90 = load ptr, ptr %89, align 8, !tbaa !68
  %91 = getelementptr inbounds nuw %struct.git_hash_algo, ptr %90, i32 0, i32 0
  %92 = load ptr, ptr %91, align 8, !tbaa !98
  call void (ptr, ...) @die(ptr noundef %87, ptr noundef %92) #13
  unreachable

93:                                               ; preds = %80
  br label %94

94:                                               ; preds = %93, %73
  %95 = load ptr, ptr %3, align 8, !tbaa !9
  call void @packet_buf_delim(ptr noundef %95)
  call void @llvm.lifetime.end.p0(i64 8, ptr %5) #11
  ret void
}