; Function Attrs: nounwind uwtable
define internal fastcc void @write_fetch_command_and_capabilities(ptr noundef nonnull %0, ptr noundef readonly %1) unnamed_addr #0 {
  %3 = alloca ptr, align 8
  call void @llvm.lifetime.start.p0(i64 8, ptr nonnull %3) #20
  tail call void @ensure_server_supports_v2(ptr noundef nonnull @.str.33) #20
  tail call void (ptr, ptr, ...) @packet_buf_write(ptr noundef nonnull %0, ptr noundef nonnull @.str.186) #20
  %4 = tail call i32 @server_supports_v2(ptr noundef nonnull @.str.128) #20
  %.not = icmp eq i32 %4, 0
  br i1 %.not, label %7, label %5

5:                                                ; preds = %2
  %6 = tail call ptr @git_user_agent_sanitized() #20
  tail call void (ptr, ptr, ...) @packet_buf_write(ptr noundef nonnull %0, ptr noundef nonnull @.str.187, ptr noundef %6) #20
  br label %7

7:                                                ; preds = %5, %2
  %8 = load i32, ptr @advertise_sid, align 4, !tbaa !15
  %.not15 = icmp eq i32 %8, 0
  br i1 %.not15, label %13, label %9

9:                                                ; preds = %7
  %10 = tail call i32 @server_supports_v2(ptr noundef nonnull @.str.130) #20
  %.not16 = icmp eq i32 %10, 0
  br i1 %.not16, label %13, label %11

11:                                               ; preds = %9
  %12 = tail call ptr @trace2_session_id() #20
  tail call void (ptr, ptr, ...) @packet_buf_write(ptr noundef nonnull %0, ptr noundef nonnull @.str.188, ptr noundef %12) #20
  br label %13

13:                                               ; preds = %11, %9, %7
  %.not17 = icmp eq ptr %1, null
  br i1 %.not17, label %.loopexit, label %14

14:                                               ; preds = %13
  %15 = getelementptr inbounds nuw i8, ptr %1, i64 8
  %16 = load i64, ptr %15, align 8, !tbaa !19
  %.not18 = icmp eq i64 %16, 0
  br i1 %.not18, label %.loopexit, label %17

17:                                               ; preds = %14
  tail call void @ensure_server_supports_v2(ptr noundef nonnull @.str.189) #20
  %18 = load i64, ptr %15, align 8, !tbaa !19
  %.not33 = icmp eq i64 %18, 0
  br i1 %.not33, label %.loopexit, label %.lr.ph

.lr.ph:                                           ; preds = %17, %.lr.ph
  %indvars.iv = phi i64 [ %indvars.iv.next, %.lr.ph ], [ 0, %17 ]
  %19 = load ptr, ptr %1, align 8, !tbaa !63
  %20 = getelementptr inbounds nuw %struct.string_list_item, ptr %19, i64 %indvars.iv
  %21 = load ptr, ptr %20, align 8, !tbaa !64
  tail call void (ptr, ptr, ...) @packet_buf_write(ptr noundef nonnull %0, ptr noundef nonnull @.str.190, ptr noundef %21) #20
  %indvars.iv.next = add nuw nsw i64 %indvars.iv, 1
  %22 = load i64, ptr %15, align 8, !tbaa !19
  %23 = icmp ugt i64 %22, %indvars.iv.next
  br i1 %23, label %.lr.ph, label %.loopexit, !llvm.loop !148

.loopexit:                                        ; preds = %.lr.ph, %17, %14, %13
  %24 = call i32 @server_feature_v2(ptr noundef nonnull @.str.191, ptr noundef nonnull %3) #20
  %.not19 = icmp eq i32 %24, 0
  br i1 %.not19, label %45, label %25

25:                                               ; preds = %.loopexit
  %26 = load ptr, ptr %3, align 8, !tbaa !11
  %27 = call i32 @hash_algo_by_name(ptr noundef %26) #20
  %28 = load ptr, ptr @the_repository, align 8, !tbaa !17
  %29 = getelementptr inbounds nuw i8, ptr %28, i64 400
  %30 = load ptr, ptr %29, align 8, !tbaa !94
  br label %31

31:                                               ; preds = %33, %25
  %.0811.i = phi i64 [ 0, %25 ], [ %34, %33 ]
  %32 = getelementptr inbounds nuw [3 x %struct.git_hash_algo], ptr @hash_algos, i64 0, i64 %.0811.i
  %.not.i = icmp eq ptr %30, %32
  br i1 %.not.i, label %.split.loop.exit9.i, label %33

33:                                               ; preds = %31
  %34 = add nuw nsw i64 %.0811.i, 1
  %exitcond.not.i = icmp eq i64 %34, 3
  br i1 %exitcond.not.i, label %hash_algo_by_ptr.exit, label %31, !llvm.loop !149

.split.loop.exit9.i:                              ; preds = %31
  %35 = trunc nuw nsw i64 %.0811.i to i32
  br label %hash_algo_by_ptr.exit

hash_algo_by_ptr.exit:                            ; preds = %33, %.split.loop.exit9.i
  %.2.i = phi i32 [ %35, %.split.loop.exit9.i ], [ 0, %33 ]
  %.not21 = icmp eq i32 %.2.i, %27
  br i1 %.not21, label %43, label %36

36:                                               ; preds = %hash_algo_by_ptr.exit
  %37 = call fastcc ptr @_(ptr noundef nonnull @.str.192)
  %38 = load ptr, ptr @the_repository, align 8, !tbaa !17
  %39 = getelementptr inbounds nuw i8, ptr %38, i64 400
  %40 = load ptr, ptr %39, align 8, !tbaa !94
  %41 = load ptr, ptr %40, align 8, !tbaa !126
  %42 = load ptr, ptr %3, align 8, !tbaa !11
  call void (ptr, ...) @die(ptr noundef %37, ptr noundef %41, ptr noundef %42) #21
  unreachable

43:                                               ; preds = %hash_algo_by_ptr.exit
  %44 = load ptr, ptr %30, align 8, !tbaa !126
  call void (ptr, ptr, ...) @packet_buf_write(ptr noundef nonnull %0, ptr noundef nonnull @.str.193, ptr noundef %44) #20
  br label %58

45:                                               ; preds = %.loopexit
  %46 = load ptr, ptr @the_repository, align 8, !tbaa !17
  %47 = getelementptr inbounds nuw i8, ptr %46, i64 400
  %48 = load ptr, ptr %47, align 8, !tbaa !94
  br label %49

49:                                               ; preds = %51, %45
  %.0811.i22 = phi i64 [ 0, %45 ], [ %52, %51 ]
  %50 = getelementptr inbounds nuw [3 x %struct.git_hash_algo], ptr @hash_algos, i64 0, i64 %.0811.i22
  %.not.i23 = icmp eq ptr %48, %50
  br i1 %.not.i23, label %hash_algo_by_ptr.exit27, label %51

51:                                               ; preds = %49
  %52 = add nuw nsw i64 %.0811.i22, 1
  %exitcond.not.i24 = icmp eq i64 %52, 3
  br i1 %exitcond.not.i24, label %hash_algo_by_ptr.exit27.thread, label %49, !llvm.loop !149

hash_algo_by_ptr.exit27:                          ; preds = %49
  %.not20 = icmp eq i64 %.0811.i22, 1
  br i1 %.not20, label %58, label %hash_algo_by_ptr.exit27.thread

hash_algo_by_ptr.exit27.thread:                   ; preds = %51, %hash_algo_by_ptr.exit27
  %53 = call fastcc ptr @_(ptr noundef nonnull @.str.194)
  %54 = load ptr, ptr @the_repository, align 8, !tbaa !17
  %55 = getelementptr inbounds nuw i8, ptr %54, i64 400
  %56 = load ptr, ptr %55, align 8, !tbaa !94
  %57 = load ptr, ptr %56, align 8, !tbaa !126
  call void (ptr, ...) @die(ptr noundef %53, ptr noundef %57) #21
  unreachable

58:                                               ; preds = %hash_algo_by_ptr.exit27, %43
  call void @packet_buf_delim(ptr noundef nonnull %0) #20
  call void @llvm.lifetime.end.p0(i64 8, ptr nonnull %3) #20
  ret void
}